(lp0
(lp1
F2.5456989149172804e-11
aF0.0
aF0.0
aF0.0
aF0.0
aF0.0
aF0.0
aF0.0
aF0.0
aF0.0
aa(lp2
F0.0
aF2.6233077234771236e-06
aF0.0
aF0.0
aF0.0
aF0.0
aF0.0
aF0.0
aF0.0
aF0.0
aa(lp3
F0.0
aF0.0
aF6.747217365788643e-09
aF0.0
aF0.0
aF0.0
aF0.0
aF0.0
aF0.0
aF0.0
aa(lp4
F0.0
aF0.0
aF0.0
aF0.0010121764023768895
aF0.0
aF0.0
aF0.0
aF0.0
aF0.0
aF0.0
aa(lp5
F0.0
aF0.0
aF0.0
aF0.0
aF9.238328177289483e-07
aF0.0
aF0.0
aF0.0
aF0.0
aF0.0
aa(lp6
F0.0
aF0.0
aF0.0
aF0.0
aF0.0
aF0.0019817669176496215
aF0.0
aF0.0
aF0.0
aF0.0
aa(lp7
F0.0
aF0.0
aF0.0
aF0.0
aF0.0
aF0.0
aF5.360822025926774
aF0.0
aF0.0
aF0.0
aa(lp8
F0.0
aF0.0
aF0.0
aF0.0
aF0.0
aF0.0
aF0.0
aF10.184135597615251
aF0.0
aF0.0
aa(lp9
F0.0
aF0.0
aF0.0
aF0.0
aF0.0
aF0.0
aF0.0
aF0.0
aF0.9824507342011103
aF0.0
aa(lp10
F0.0
aF0.0
aF0.0
aF0.0
aF0.0
aF0.0
aF0.0
aF0.0
aF0.0
aF1.639853675129135
aa.