(lp0
(lp1
F402.6613182036259
aF0.0
aF0.0
aF0.0
aF0.0
aa(lp2
F0.0
aF27736.26375406946
aF0.0
aF0.0
aF0.0
aa(lp3
F0.0
aF0.0
aF0.42566528580248597
aF0.0
aF0.0
aa(lp4
F0.0
aF0.0
aF0.0
aF0.5692501870877149
aF0.0
aa(lp5
F0.0
aF0.0
aF0.0
aF0.0
aF1.080902185746267
aa.