(lp0
(lp1
F4.638857423544319
aF0.0
aF0.0
aF0.0
aF0.0
aa(lp2
F0.0
aF170.16107234233192
aF0.0
aF0.0
aF0.0
aa(lp3
F0.0
aF0.0
aF79576.20324833694
aF0.0
aF0.0
aa(lp4
F0.0
aF0.0
aF0.0
aF3.6421655632867047
aF0.0
aa(lp5
F0.0
aF0.0
aF0.0
aF0.0
aF112.19624803796664
aa.